target datalayout = "e-m:e-p270:32:32-p271:32:32-p272:64:64-i64:64-i128:128-f80:128-n8:16:32:64-S128"
target triple = "x86_64-pc-linux-gnu"

%class.ZReferenceProcessor = type { %class.ReferenceDiscoverer, ptr, ptr, i8, %class.ZValue, %class.ZValue, %class.ZValue, %class.ZValue.0, %class.ZValue.1, i64 }
%class.ReferenceDiscoverer = type { ptr }
%class.ZValue = type { i64 }
%class.ZValue.0 = type { i64 }
%class.ZValue.1 = type { i64 }
%class.ZValueIterator = type <{ ptr, i32, [4 x i8] }>
%"struct.Atomic::XchgImpl" = type { i8 }
%class.SuspendibleThreadSetJoiner = type { i8 }
%"struct.Atomic::XchgImpl.64" = type { i8 }
%"struct.Atomic::PlatformXchg" = type { i8 }

@ConcGCThreads = external global i32, align 4

; Function Attrs: mustprogress nounwind uwtable
define linkonce_odr hidden noundef i64 @_ZNK6Atomic12PlatformXchgILm8EEclImEET_PVS3_S3_19atomic_memory_order(ptr noundef nonnull align 1 dereferenceable(1) %0, ptr noundef %1, i64 noundef %2, i32 noundef %3) #1 comdat align 2 {
  %5 = alloca ptr, align 8
  %6 = alloca ptr, align 8
  %7 = alloca i64, align 8
  %8 = alloca i32, align 4
  store ptr %0, ptr %5, align 8
  store ptr %1, ptr %6, align 8
  store i64 %2, ptr %7, align 8
  store i32 %3, ptr %8, align 4
  %9 = load i64, ptr %7, align 8
  %10 = load ptr, ptr %6, align 8
  %11 = call i64 asm sideeffect "xchgq ($2),$0", "=r,0,r,~{memory},~{dirflag},~{fpsr},~{flags}"(i64 %9, ptr %10) #3, !srcloc !30
  store i64 %11, ptr %7, align 8
  %12 = load i64, ptr %7, align 8
  ret i64 %12
}

; Function Attrs: mustprogress nounwind uwtable
define linkonce_odr hidden noundef i64 @_ZNK6Atomic8XchgImplImmvEclEPVmm19atomic_memory_order(ptr noundef nonnull align 1 dereferenceable(1) %0, ptr noundef %1, i64 noundef %2, i32 noundef %3) #1 comdat align 2 {
  %5 = alloca ptr, align 8
  %6 = alloca ptr, align 8
  %7 = alloca i64, align 8
  %8 = alloca i32, align 4
  %9 = alloca %"struct.Atomic::PlatformXchg", align 1
  store ptr %0, ptr %5, align 8
  store ptr %1, ptr %6, align 8
  store i64 %2, ptr %7, align 8
  store i32 %3, ptr %8, align 4
  %10 = load ptr, ptr %6, align 8
  %11 = load i64, ptr %7, align 8
  %12 = load i32, ptr %8, align 4
  %13 = call noundef i64 @_ZNK6Atomic12PlatformXchgILm8EEclImEET_PVS3_S3_19atomic_memory_order(ptr noundef nonnull align 1 dereferenceable(1) %9, ptr noundef %10, i64 noundef %11, i32 noundef %12)
  ret i64 %13
}

; Function Attrs: mustprogress nounwind uwtable
define linkonce_odr hidden noundef i64 @_ZN20PrimitiveConversions9TranslateI8zaddressvE7recoverEm(i64 noundef %0) #1 comdat align 2 {
  %2 = alloca i64, align 8
  store i64 %0, ptr %2, align 8
  %3 = load i64, ptr %2, align 8
  ret i64 %3
}

; Function Attrs: mustprogress nounwind uwtable
define linkonce_odr hidden noundef i64 @_ZN6Atomic4xchgImmEET_PVS1_T0_19atomic_memory_order(ptr noundef %0, i64 noundef %1, i32 noundef %2) #1 comdat align 2 {
  %4 = alloca ptr, align 8
  %5 = alloca i64, align 8
  %6 = alloca i32, align 4
  %7 = alloca %"struct.Atomic::XchgImpl.64", align 1
  store ptr %0, ptr %4, align 8
  store i64 %1, ptr %5, align 8
  store i32 %2, ptr %6, align 4
  %8 = load ptr, ptr %4, align 8
  %9 = load i64, ptr %5, align 8
  %10 = load i32, ptr %6, align 4
  %11 = call noundef i64 @_ZNK6Atomic8XchgImplImmvEclEPVmm19atomic_memory_order(ptr noundef nonnull align 1 dereferenceable(1) %7, ptr noundef %8, i64 noundef %9, i32 noundef %10)
  ret i64 %11
}

; Function Attrs: mustprogress nounwind uwtable
define linkonce_odr hidden noundef i64 @_ZN20PrimitiveConversions9TranslateI8zaddressvE5decayES1_(i64 noundef %0) #1 comdat align 2 {
  %2 = alloca i64, align 8
  store i64 %0, ptr %2, align 8
  %3 = load i64, ptr %2, align 8
  ret i64 %3
}

; Function Attrs: mustprogress nounwind uwtable
define linkonce_odr hidden noundef i64 @_ZNK6ZValueI17ZPerWorkerStorage8zaddressE10value_addrEj(ptr noundef nonnull align 8 dereferenceable(8) %0, i32 noundef %1) #1 comdat align 2 {
  %3 = alloca ptr, align 8
  %4 = alloca i32, align 4
  store ptr %0, ptr %3, align 8
  store i32 %1, ptr %4, align 4
  %5 = load ptr, ptr %3, align 8
  %6 = getelementptr inbounds %class.ZValue.0, ptr %5, i32 0, i32 0
  %7 = load i64, ptr %6, align 8
  %8 = load i32, ptr %4, align 4
  %9 = zext i32 %8 to i64
  %10 = mul i64 %9, 4096
  %11 = add i64 %7, %10
  ret i64 %11
}

; Function Attrs: mustprogress nounwind uwtable
define linkonce_odr hidden noundef i64 @_ZNK6Atomic8XchgImplI8zaddressS1_vEclEPVS1_S1_19atomic_memory_order(ptr noundef nonnull align 1 dereferenceable(1) %0, ptr noundef %1, i64 noundef %2, i32 noundef %3) #1 comdat align 2 {
  %5 = alloca ptr, align 8
  %6 = alloca ptr, align 8
  %7 = alloca i64, align 8
  %8 = alloca i32, align 4
  store ptr %0, ptr %5, align 8
  store ptr %1, ptr %6, align 8
  store i64 %2, ptr %7, align 8
  store i32 %3, ptr %8, align 4
  %9 = load ptr, ptr %6, align 8
  %10 = load i64, ptr %7, align 8
  %11 = call noundef i64 @_ZN20PrimitiveConversions9TranslateI8zaddressvE5decayES1_(i64 noundef %10)
  %12 = load i32, ptr %8, align 4
  %13 = call noundef i64 @_ZN6Atomic4xchgImmEET_PVS1_T0_19atomic_memory_order(ptr noundef %9, i64 noundef %11, i32 noundef %12)
  %14 = call noundef i64 @_ZN20PrimitiveConversions9TranslateI8zaddressvE7recoverEm(i64 noundef %13)
  ret i64 %14
}

; Function Attrs: mustprogress nounwind uwtable
define linkonce_odr hidden noundef ptr @_ZN6ZValueI17ZPerWorkerStorage8zaddressE4addrEj(ptr noundef nonnull align 8 dereferenceable(8) %0, i32 noundef %1) #1 comdat align 2 {
  %3 = alloca ptr, align 8
  %4 = alloca i32, align 4
  store ptr %0, ptr %3, align 8
  store i32 %1, ptr %4, align 4
  %5 = load ptr, ptr %3, align 8
  %6 = load i32, ptr %4, align 4
  %7 = call noundef i64 @_ZNK6ZValueI17ZPerWorkerStorage8zaddressE10value_addrEj(ptr noundef nonnull align 8 dereferenceable(8) %5, i32 noundef %6)
  %8 = inttoptr i64 %7 to ptr
  ret ptr %8
}

; Function Attrs: mustprogress nounwind uwtable
define linkonce_odr hidden noundef i32 @_ZN17ZPerWorkerStorage5countEv() #1 comdat align 2 {
  %1 = load i32, ptr @ConcGCThreads, align 4
  ret i32 %1
}

; Function Attrs: mustprogress nounwind uwtable
define linkonce_odr hidden void @_ZN26SuspendibleThreadSetJoinerD2Ev(ptr noundef nonnull align 1 dereferenceable(1) %0) unnamed_addr #1 comdat align 2 {
  %2 = alloca ptr, align 8
  store ptr %0, ptr %2, align 8
  %3 = load ptr, ptr %2, align 8
  %4 = getelementptr inbounds %class.SuspendibleThreadSetJoiner, ptr %3, i32 0, i32 0
  %5 = load i8, ptr %4, align 1
  %6 = trunc i8 %5 to i1
  br i1 %6, label %7, label %8

7:                                                ; preds = %1
  call void @_ZN20SuspendibleThreadSet5leaveEv()
  br label %8

8:                                                ; preds = %7, %1
  ret void
}

; Function Attrs: mustprogress nounwind uwtable
define linkonce_odr hidden noundef i64 @_ZN6Atomic4xchgI8zaddressS1_EET_PVS2_T0_19atomic_memory_order(ptr noundef %0, i64 noundef %1, i32 noundef %2) #1 comdat align 2 {
  %4 = alloca ptr, align 8
  %5 = alloca i64, align 8
  %6 = alloca i32, align 4
  %7 = alloca %"struct.Atomic::XchgImpl", align 1
  store ptr %0, ptr %4, align 8
  store i64 %1, ptr %5, align 8
  store i32 %2, ptr %6, align 4
  %8 = load ptr, ptr %4, align 8
  %9 = load i64, ptr %5, align 8
  %10 = load i32, ptr %6, align 4
  %11 = call noundef i64 @_ZNK6Atomic8XchgImplI8zaddressS1_vEclEPVS1_S1_19atomic_memory_order(ptr noundef nonnull align 1 dereferenceable(1) %7, ptr noundef %8, i64 noundef %9, i32 noundef %10)
  ret i64 %11
}

; Function Attrs: mustprogress nounwind uwtable
define linkonce_odr hidden noundef zeroext i1 @_ZN14ZValueIteratorI17ZPerWorkerStorage8zaddressE4nextEPPS1_(ptr noundef nonnull align 8 dereferenceable(12) %0, ptr noundef %1) #1 comdat align 2 {
  %3 = alloca i1, align 1
  %4 = alloca ptr, align 8
  %5 = alloca ptr, align 8
  store ptr %0, ptr %4, align 8
  store ptr %1, ptr %5, align 8
  %6 = load ptr, ptr %4, align 8
  %7 = getelementptr inbounds %class.ZValueIterator, ptr %6, i32 0, i32 1
  %8 = load i32, ptr %7, align 8
  %9 = call noundef i32 @_ZN17ZPerWorkerStorage5countEv()
  %10 = icmp ult i32 %8, %9
  br i1 %10, label %11, label %19

11:                                               ; preds = %2
  %12 = getelementptr inbounds %class.ZValueIterator, ptr %6, i32 0, i32 0
  %13 = load ptr, ptr %12, align 8
  %14 = getelementptr inbounds %class.ZValueIterator, ptr %6, i32 0, i32 1
  %15 = load i32, ptr %14, align 8
  %16 = add i32 %15, 1
  store i32 %16, ptr %14, align 8
  %17 = call noundef ptr @_ZN6ZValueI17ZPerWorkerStorage8zaddressE4addrEj(ptr noundef nonnull align 8 dereferenceable(8) %13, i32 noundef %15)
  %18 = load ptr, ptr %5, align 8
  store ptr %17, ptr %18, align 8
  store i1 true, ptr %3, align 1
  br label %20

19:                                               ; preds = %2
  store i1 false, ptr %3, align 1
  br label %20

20:                                               ; preds = %19, %11
  %21 = load i1, ptr %3, align 1
  ret i1 %21
}

; Function Attrs: mustprogress nounwind uwtable
define linkonce_odr hidden void @_ZN14ZValueIteratorI17ZPerWorkerStorage8zaddressEC2EP6ZValueIS0_S1_E(ptr noundef nonnull align 8 dereferenceable(12) %0, ptr noundef %1) unnamed_addr #1 comdat align 2 {
  %3 = alloca ptr, align 8
  %4 = alloca ptr, align 8
  store ptr %0, ptr %3, align 8
  store ptr %1, ptr %4, align 8
  %5 = load ptr, ptr %3, align 8
  %6 = getelementptr inbounds %class.ZValueIterator, ptr %5, i32 0, i32 0
  %7 = load ptr, ptr %4, align 8
  store ptr %7, ptr %6, align 8
  %8 = getelementptr inbounds %class.ZValueIterator, ptr %5, i32 0, i32 1
  store i32 0, ptr %8, align 8
  ret void
}

; Function Attrs: mustprogress nounwind uwtable
define linkonce_odr hidden void @_ZN26SuspendibleThreadSetJoinerC2Eb(ptr noundef nonnull align 1 dereferenceable(1) %0, i1 noundef zeroext %1) unnamed_addr #1 comdat align 2 {
  %3 = alloca ptr, align 8
  %4 = alloca i8, align 1
  store ptr %0, ptr %3, align 8
  %5 = zext i1 %1 to i8
  store i8 %5, ptr %4, align 1
  %6 = load ptr, ptr %3, align 8
  %7 = getelementptr inbounds %class.SuspendibleThreadSetJoiner, ptr %6, i32 0, i32 0
  %8 = load i8, ptr %4, align 1
  %9 = trunc i8 %8 to i1
  %10 = zext i1 %9 to i8
  store i8 %10, ptr %7, align 1
  %11 = getelementptr inbounds %class.SuspendibleThreadSetJoiner, ptr %6, i32 0, i32 0
  %12 = load i8, ptr %11, align 1
  %13 = trunc i8 %12 to i1
  br i1 %13, label %14, label %15

14:                                               ; preds = %2
  call void @_ZN20SuspendibleThreadSet4joinEv()
  br label %15

15:                                               ; preds = %14, %2
  ret void
}

; Function Attrs: mustprogress nounwind uwtable
define hidden void @_ZN19ZReferenceProcessor4workEv(ptr noundef nonnull align 8 dereferenceable(80) %0) #1 align 2 {
  %2 = alloca ptr, align 8
  %3 = alloca %class.SuspendibleThreadSetJoiner, align 1
  %4 = alloca %class.ZValueIterator, align 8
  %5 = alloca ptr, align 8
  %6 = alloca i64, align 8
  store ptr %0, ptr %2, align 8
  %7 = load ptr, ptr %2, align 8
  call void @_ZN26SuspendibleThreadSetJoinerC2Eb(ptr noundef nonnull align 1 dereferenceable(1) %3, i1 noundef zeroext true)
  %8 = getelementptr inbounds %class.ZReferenceProcessor, ptr %7, i32 0, i32 7
  call void @_ZN14ZValueIteratorI17ZPerWorkerStorage8zaddressEC2EP6ZValueIS0_S1_E(ptr noundef nonnull align 8 dereferenceable(12) %4, ptr noundef %8)
  br label %9

9:                                                ; preds = %18, %1
  %10 = call noundef zeroext i1 @_ZN14ZValueIteratorI17ZPerWorkerStorage8zaddressE4nextEPPS1_(ptr noundef nonnull align 8 dereferenceable(12) %4, ptr noundef %5)
  br i1 %10, label %11, label %19

11:                                               ; preds = %9
  %12 = load ptr, ptr %5, align 8
  %13 = call noundef i64 @_ZN6Atomic4xchgI8zaddressS1_EET_PVS2_T0_19atomic_memory_order(ptr noundef %12, i64 noundef 0, i32 noundef 8)
  store i64 %13, ptr %6, align 8
  %14 = load i64, ptr %6, align 8
  %15 = icmp ne i64 %14, 0
  br i1 %15, label %16, label %18

16:                                               ; preds = %11
  %17 = load i64, ptr %6, align 8
  call void @_ZN19ZReferenceProcessor30process_worker_discovered_listE8zaddress(ptr noundef nonnull align 8 dereferenceable(80) %7, i64 noundef %17)
  br label %18

18:                                               ; preds = %16, %11
  br label %9, !llvm.loop !12

19:                                               ; preds = %9
  call void @_ZN26SuspendibleThreadSetJoinerD2Ev(ptr noundef nonnull align 1 dereferenceable(1) %3) #3
  ret void
}