; Function Attrs: mustprogress nounwind uwtable
define hidden void @_ZN19ZReferenceProcessor4workEv(ptr nocapture noundef nonnull align 8 dereferenceable(80) %0) local_unnamed_addr #1 align 2 {
  tail call void @_ZN20SuspendibleThreadSet4joinEv() #11
  %2 = getelementptr inbounds i8, ptr %0, i64 56
  %3 = load i32, ptr @ConcGCThreads, align 4
  %.not8 = icmp eq i32 %3, 0
  br i1 %.not8, label %_ZN26SuspendibleThreadSetJoinerD2Ev.exit, label %.lr.ph

.lr.ph:                                           ; preds = %1, %10
  %indvars.iv = phi i64 [ %indvars.iv.next, %10 ], [ 0, %1 ]
  %indvars.iv.next = add nuw nsw i64 %indvars.iv, 1
  %4 = load i64, ptr %2, align 8
  %5 = shl nuw nsw i64 %indvars.iv, 12
  %6 = add i64 %4, %5
  %7 = inttoptr i64 %6 to ptr
  %8 = tail call noundef i64 asm sideeffect "xchgq ($2),$0", "=r,0,r,~{memory},~{dirflag},~{fpsr},~{flags}"(i64 0, ptr %7) #11, !srcloc !12
  %.not = icmp eq i64 %8, 0
  br i1 %.not, label %10, label %9

9:                                                ; preds = %.lr.ph
  tail call void @_ZN19ZReferenceProcessor30process_worker_discovered_listE8zaddress(ptr noundef nonnull align 8 dereferenceable(80) %0, i64 noundef %8)
  br label %10

10:                                               ; preds = %9, %.lr.ph
  %11 = load i32, ptr @ConcGCThreads, align 4
  %12 = zext i32 %11 to i64
  %13 = icmp ult i64 %indvars.iv.next, %12
  br i1 %13, label %.lr.ph, label %_ZN26SuspendibleThreadSetJoinerD2Ev.exit, !llvm.loop !13

_ZN26SuspendibleThreadSetJoinerD2Ev.exit:         ; preds = %10, %1
  tail call void @_ZN20SuspendibleThreadSet5leaveEv() #11
  ret void
}